target datalayout = "e-m:e-p270:32:32-p271:32:32-p272:64:64-i64:64-i128:128-f80:128-n8:16:32:64-S128"
target triple = "x86_64-pc-linux-gnu"

%struct.strbuf = type { i64, i64, ptr }
%struct.repository = type { ptr, ptr, ptr, ptr, ptr, %struct.strmap, %struct.strmap, %struct.repo_path_cache, ptr, ptr, ptr, ptr, %struct.repo_settings, ptr, ptr, ptr, ptr, ptr, ptr, i32, i32, i32, ptr, ptr, i32, i32, i8 }
%struct.strmap = type { %struct.hashmap, ptr, i8 }
%struct.hashmap = type { ptr, ptr, ptr, i32, i32, i32, i32, i8 }
%struct.repo_path_cache = type { ptr, ptr, ptr, ptr, ptr, ptr, ptr }
%struct.repo_settings = type { i32, i32, i32, i32, i32, i32, i32, i32, i32, i32, i32, i32, ptr, i32, i32, i32, i32, i32, i32, i32, i64, i64, i64 }
%struct.startup_info = type { i32, ptr, ptr }

@strbuf_slopbuf = external global [0 x i8], align 1
@the_repository = external global ptr, align 8
@.str.39 = private unnamed_addr constant [25 x i8] c"could not switch to '%s'\00", align 1
@.str.40 = private unnamed_addr constant [9 x i8] c"scalar.c\00", align 1
@.str.69 = private unnamed_addr constant [11 x i8] c"./strbuf.h\00", align 1
@.str.70 = private unnamed_addr constant [30 x i8] c"strbuf_setlen() beyond buffer\00", align 1
@.str.126 = private unnamed_addr constant [38 x i8] c"Scalar enlistments require a worktree\00", align 1
@__const.setup_enlistment_directory.path = private unnamed_addr constant %struct.strbuf { i64 0, i64 0, ptr @strbuf_slopbuf }, align 8
@startup_info = external global ptr, align 8
@.str.142 = private unnamed_addr constant [25 x i8] c"gitdir already set up?!?\00", align 1
@.str.143 = private unnamed_addr constant [20 x i8] c"'%s' does not exist\00", align 1
@.str.144 = private unnamed_addr constant [25 x i8] c"need a working directory\00", align 1
@.str.145 = private unnamed_addr constant [5 x i8] c"/src\00", align 1

; Function Attrs: inlinehint nounwind uwtable
define internal void @strbuf_setlen(ptr noundef %0, i64 noundef %1) #5 {
  %3 = alloca ptr, align 8
  %4 = alloca i64, align 8
  store ptr %0, ptr %3, align 8, !tbaa !26
  store i64 %1, ptr %4, align 8, !tbaa !51
  %5 = load i64, ptr %4, align 8, !tbaa !51
  %6 = load ptr, ptr %3, align 8, !tbaa !26
  %7 = getelementptr inbounds nuw %struct.strbuf, ptr %6, i32 0, i32 0
  %8 = load i64, ptr %7, align 8, !tbaa !79
  %9 = icmp ne i64 %8, 0
  br i1 %9, label %10, label %15

10:                                               ; preds = %2
  %11 = load ptr, ptr %3, align 8, !tbaa !26
  %12 = getelementptr inbounds nuw %struct.strbuf, ptr %11, i32 0, i32 0
  %13 = load i64, ptr %12, align 8, !tbaa !79
  %14 = sub i64 %13, 1
  br label %16

15:                                               ; preds = %2
  br label %16

16:                                               ; preds = %15, %10
  %17 = phi i64 [ %14, %10 ], [ 0, %15 ]
  %18 = icmp ugt i64 %5, %17
  br i1 %18, label %19, label %20

19:                                               ; preds = %16
  call void (ptr, i32, ptr, ...) @BUG_fl(ptr noundef @.str.69, i32 noundef 167, ptr noundef @.str.70) #11
  unreachable

20:                                               ; preds = %16
  %21 = load i64, ptr %4, align 8, !tbaa !51
  %22 = load ptr, ptr %3, align 8, !tbaa !26
  %23 = getelementptr inbounds nuw %struct.strbuf, ptr %22, i32 0, i32 1
  store i64 %21, ptr %23, align 8, !tbaa !41
  %24 = load ptr, ptr %3, align 8, !tbaa !26
  %25 = getelementptr inbounds nuw %struct.strbuf, ptr %24, i32 0, i32 2
  %26 = load ptr, ptr %25, align 8, !tbaa !23
  %27 = icmp ne ptr %26, @strbuf_slopbuf
  br i1 %27, label %28, label %34

28:                                               ; preds = %20
  %29 = load ptr, ptr %3, align 8, !tbaa !26
  %30 = getelementptr inbounds nuw %struct.strbuf, ptr %29, i32 0, i32 2
  %31 = load ptr, ptr %30, align 8, !tbaa !23
  %32 = load i64, ptr %4, align 8, !tbaa !51
  %33 = getelementptr inbounds nuw i8, ptr %31, i64 %32
  store i8 0, ptr %33, align 1, !tbaa !15
  br label %35

34:                                               ; preds = %20
  br label %35

35:                                               ; preds = %34, %28
  ret void
}

; Function Attrs: inlinehint nounwind uwtable
define internal void @strbuf_addstr(ptr noundef %0, ptr noundef %1) #5 {
  %3 = alloca ptr, align 8
  %4 = alloca ptr, align 8
  store ptr %0, ptr %3, align 8, !tbaa !26
  store ptr %1, ptr %4, align 8, !tbaa !4
  %5 = load ptr, ptr %3, align 8, !tbaa !26
  %6 = load ptr, ptr %4, align 8, !tbaa !4
  %7 = load ptr, ptr %4, align 8, !tbaa !4
  %8 = call i64 @strlen(ptr noundef %7) #13
  call void @strbuf_add(ptr noundef %5, ptr noundef %6, i64 noundef %8)
  ret void
}

; Function Attrs: nounwind uwtable
define internal void @setup_enlistment_directory(i32 noundef %0, ptr noundef %1, ptr noundef %2, ptr noundef %3, ptr noundef %4) #0 {
  %6 = alloca i32, align 4
  %7 = alloca ptr, align 8
  %8 = alloca ptr, align 8
  %9 = alloca ptr, align 8
  %10 = alloca ptr, align 8
  %11 = alloca %struct.strbuf, align 8
  %12 = alloca i32, align 4
  %13 = alloca i64, align 8
  store i32 %0, ptr %6, align 4, !tbaa !11
  store ptr %1, ptr %7, align 8, !tbaa !13
  store ptr %2, ptr %8, align 8, !tbaa !13
  store ptr %3, ptr %9, align 8, !tbaa !93
  store ptr %4, ptr %10, align 8, !tbaa !26
  call void @llvm.lifetime.start.p0(i64 24, ptr %11) #12
  call void @llvm.memcpy.p0.p0.i64(ptr align 8 %11, ptr align 8 @__const.setup_enlistment_directory.path, i64 24, i1 false)
  call void @llvm.lifetime.start.p0(i64 4, ptr %12) #12
  store i32 0, ptr %12, align 4, !tbaa !11
  call void @llvm.lifetime.start.p0(i64 8, ptr %13) #12
  %14 = load ptr, ptr @startup_info, align 8, !tbaa !95
  %15 = getelementptr inbounds nuw %struct.startup_info, ptr %14, i32 0, i32 0
  %16 = load i32, ptr %15, align 8, !tbaa !97
  %17 = icmp ne i32 %16, 0
  br i1 %17, label %18, label %19

18:                                               ; preds = %5
  call void (ptr, i32, ptr, ...) @BUG_fl(ptr noundef @.str.40, i32 noundef 33, ptr noundef @.str.142) #11
  unreachable

19:                                               ; preds = %5
  %20 = load i32, ptr %6, align 4, !tbaa !11
  %21 = icmp sgt i32 %20, 1
  br i1 %21, label %22, label %25

22:                                               ; preds = %19
  %23 = load ptr, ptr %8, align 8, !tbaa !13
  %24 = load ptr, ptr %9, align 8, !tbaa !93
  call void @usage_with_options(ptr noundef %23, ptr noundef %24) #11
  unreachable

25:                                               ; preds = %19
  %26 = load i32, ptr %6, align 4, !tbaa !11
  %27 = icmp eq i32 %26, 1
  br i1 %27, label %28, label %50

28:                                               ; preds = %25
  %29 = load ptr, ptr %7, align 8, !tbaa !13
  %30 = getelementptr inbounds ptr, ptr %29, i64 0
  %31 = load ptr, ptr %30, align 8, !tbaa !4
  call void @strbuf_add_absolute_path(ptr noundef %11, ptr noundef %31)
  %32 = getelementptr inbounds nuw %struct.strbuf, ptr %11, i32 0, i32 2
  %33 = load ptr, ptr %32, align 8, !tbaa !23
  %34 = call i32 @is_directory(ptr noundef %33)
  %35 = icmp ne i32 %34, 0
  br i1 %35, label %40, label %36

36:                                               ; preds = %28
  %37 = call ptr @_(ptr noundef @.str.143)
  %38 = getelementptr inbounds nuw %struct.strbuf, ptr %11, i32 0, i32 2
  %39 = load ptr, ptr %38, align 8, !tbaa !23
  call void (ptr, ...) @die(ptr noundef %37, ptr noundef %39) #11
  unreachable

40:                                               ; preds = %28
  %41 = getelementptr inbounds nuw %struct.strbuf, ptr %11, i32 0, i32 2
  %42 = load ptr, ptr %41, align 8, !tbaa !23
  %43 = call i32 @chdir(ptr noundef %42) #12
  %44 = icmp slt i32 %43, 0
  br i1 %44, label %45, label %49

45:                                               ; preds = %40
  %46 = call ptr @_(ptr noundef @.str.39)
  %47 = getelementptr inbounds nuw %struct.strbuf, ptr %11, i32 0, i32 2
  %48 = load ptr, ptr %47, align 8, !tbaa !23
  call void (ptr, ...) @die_errno(ptr noundef %46, ptr noundef %48) #11
  unreachable

49:                                               ; preds = %40
  br label %56

50:                                               ; preds = %25
  %51 = call i32 @strbuf_getcwd(ptr noundef %11)
  %52 = icmp slt i32 %51, 0
  br i1 %52, label %53, label %55

53:                                               ; preds = %50
  %54 = call ptr @_(ptr noundef @.str.144)
  call void (ptr, ...) @die(ptr noundef %54) #11
  unreachable

55:                                               ; preds = %50
  br label %56

56:                                               ; preds = %55, %49
  call void @strbuf_trim_trailing_dir_sep(ptr noundef %11)
  %57 = getelementptr inbounds nuw %struct.strbuf, ptr %11, i32 0, i32 1
  %58 = load i64, ptr %57, align 8, !tbaa !41
  store i64 %58, ptr %13, align 8, !tbaa !51
  call void @strbuf_addstr(ptr noundef %11, ptr noundef @.str.145)
  %59 = call i32 @is_nonbare_repository_dir(ptr noundef %11)
  %60 = icmp ne i32 %59, 0
  br i1 %60, label %61, label %71

61:                                               ; preds = %56
  store i32 1, ptr %12, align 4, !tbaa !11
  %62 = getelementptr inbounds nuw %struct.strbuf, ptr %11, i32 0, i32 2
  %63 = load ptr, ptr %62, align 8, !tbaa !23
  %64 = call i32 @chdir(ptr noundef %63) #12
  %65 = icmp slt i32 %64, 0
  br i1 %65, label %66, label %70

66:                                               ; preds = %61
  %67 = call ptr @_(ptr noundef @.str.39)
  %68 = getelementptr inbounds nuw %struct.strbuf, ptr %11, i32 0, i32 2
  %69 = load ptr, ptr %68, align 8, !tbaa !23
  call void (ptr, ...) @die_errno(ptr noundef %67, ptr noundef %69) #11
  unreachable

70:                                               ; preds = %61
  br label %71

71:                                               ; preds = %70, %56
  %72 = load i64, ptr %13, align 8, !tbaa !51
  call void @strbuf_setlen(ptr noundef %11, i64 noundef %72)
  %73 = call ptr @setup_git_directory()
  %74 = load ptr, ptr @the_repository, align 8, !tbaa !43
  %75 = getelementptr inbounds nuw %struct.repository, ptr %74, i32 0, i32 10
  %76 = load ptr, ptr %75, align 8, !tbaa !92
  %77 = icmp ne ptr %76, null
  br i1 %77, label %80, label %78

78:                                               ; preds = %71
  %79 = call ptr @_(ptr noundef @.str.126)
  call void (ptr, ...) @die(ptr noundef %79) #11
  unreachable

80:                                               ; preds = %71
  %81 = load ptr, ptr %10, align 8, !tbaa !26
  %82 = icmp ne ptr %81, null
  br i1 %82, label %83, label %94

83:                                               ; preds = %80
  %84 = load i32, ptr %12, align 4, !tbaa !11
  %85 = icmp ne i32 %84, 0
  br i1 %85, label %86, label %88

86:                                               ; preds = %83
  %87 = load ptr, ptr %10, align 8, !tbaa !26
  call void @strbuf_addbuf(ptr noundef %87, ptr noundef %11)
  br label %93

88:                                               ; preds = %83
  %89 = load ptr, ptr %10, align 8, !tbaa !26
  %90 = load ptr, ptr @the_repository, align 8, !tbaa !43
  %91 = getelementptr inbounds nuw %struct.repository, ptr %90, i32 0, i32 10
  %92 = load ptr, ptr %91, align 8, !tbaa !92
  call void @strbuf_addstr(ptr noundef %89, ptr noundef %92)
  br label %93

93:                                               ; preds = %88, %86
  br label %94

94:                                               ; preds = %93, %80
  call void @strbuf_release(ptr noundef %11)
  call void @llvm.lifetime.end.p0(i64 8, ptr %13) #12
  call void @llvm.lifetime.end.p0(i64 4, ptr %12) #12
  call void @llvm.lifetime.end.p0(i64 24, ptr %11) #12
  ret void
}