; Function Attrs: nounwind uwtable
define internal fastcc void @setup_enlistment_directory(i32 noundef %0, ptr noundef readonly captures(none) %1, ptr noundef nonnull %2, ptr noundef nonnull %3, ptr noundef %4) unnamed_addr #2 {
  %6 = alloca %struct.strbuf, align 8
  call void @llvm.lifetime.start.p0(i64 24, ptr nonnull %6) #18
  call void @llvm.memcpy.p0.p0.i64(ptr noundef nonnull align 8 dereferenceable(24) %6, ptr noundef nonnull align 8 dereferenceable(24) @__const.cmd_diagnose.diagnostics_root, i64 24, i1 false)
  %7 = load ptr, ptr @startup_info, align 8, !tbaa !79
  %8 = load i32, ptr %7, align 8, !tbaa !81
  %.not = icmp eq i32 %8, 0
  br i1 %.not, label %10, label %9

9:                                                ; preds = %5
  tail call void (ptr, i32, ptr, ...) @BUG_fl(ptr noundef nonnull @.str.40, i32 noundef 33, ptr noundef nonnull @.str.142) #17
  unreachable

10:                                               ; preds = %5
  %11 = icmp sgt i32 %0, 1
  br i1 %11, label %12, label %13

12:                                               ; preds = %10
  tail call void @usage_with_options(ptr noundef nonnull %2, ptr noundef nonnull %3) #17
  unreachable

13:                                               ; preds = %10
  %14 = icmp eq i32 %0, 1
  br i1 %14, label %15, label %30

15:                                               ; preds = %13
  %16 = load ptr, ptr %1, align 8, !tbaa !4
  call void @strbuf_add_absolute_path(ptr noundef nonnull %6, ptr noundef %16) #18
  %17 = getelementptr inbounds nuw i8, ptr %6, i64 16
  %18 = load ptr, ptr %17, align 8, !tbaa !17
  %19 = call i32 @is_directory(ptr noundef %18) #18
  %.not12 = icmp eq i32 %19, 0
  br i1 %.not12, label %20, label %23

20:                                               ; preds = %15
  %21 = call fastcc ptr @_(ptr noundef nonnull @.str.143)
  %22 = load ptr, ptr %17, align 8, !tbaa !17
  call void (ptr, ...) @die(ptr noundef %21, ptr noundef %22) #17
  unreachable

23:                                               ; preds = %15
  %24 = load ptr, ptr %17, align 8, !tbaa !17
  %25 = call i32 @chdir(ptr noundef %24) #18
  %26 = icmp slt i32 %25, 0
  br i1 %26, label %27, label %35

27:                                               ; preds = %23
  %28 = call fastcc ptr @_(ptr noundef nonnull @.str.39)
  %29 = load ptr, ptr %17, align 8, !tbaa !17
  call void (ptr, ...) @die_errno(ptr noundef %28, ptr noundef %29) #17
  unreachable

30:                                               ; preds = %13
  %31 = call i32 @strbuf_getcwd(ptr noundef nonnull %6) #18
  %32 = icmp slt i32 %31, 0
  br i1 %32, label %33, label %35

33:                                               ; preds = %30
  %34 = call fastcc ptr @_(ptr noundef nonnull @.str.144)
  call void (ptr, ...) @die(ptr noundef %34) #17
  unreachable

35:                                               ; preds = %30, %23
  call void @strbuf_trim_trailing_dir_sep(ptr noundef nonnull %6) #18
  %36 = getelementptr inbounds nuw i8, ptr %6, i64 8
  %37 = load i64, ptr %36, align 8, !tbaa !32
  call void @strbuf_add(ptr noundef nonnull %6, ptr noundef nonnull @.str.145, i64 noundef 4) #18
  %38 = call i32 @is_nonbare_repository_dir(ptr noundef nonnull %6) #18
  %.not13 = icmp eq i32 %38, 0
  br i1 %.not13, label %47, label %39

39:                                               ; preds = %35
  %40 = getelementptr inbounds nuw i8, ptr %6, i64 16
  %41 = load ptr, ptr %40, align 8, !tbaa !17
  %42 = call i32 @chdir(ptr noundef %41) #18
  %43 = icmp slt i32 %42, 0
  br i1 %43, label %44, label %47

44:                                               ; preds = %39
  %45 = call fastcc ptr @_(ptr noundef nonnull @.str.39)
  %46 = load ptr, ptr %40, align 8, !tbaa !17
  call void (ptr, ...) @die_errno(ptr noundef %45, ptr noundef %46) #17
  unreachable

47:                                               ; preds = %39, %35
  %48 = load i64, ptr %6, align 8, !tbaa !33
  %spec.select.i = call i64 @llvm.usub.sat.i64(i64 %48, i64 1)
  %49 = icmp ugt i64 %37, %spec.select.i
  br i1 %49, label %50, label %51

50:                                               ; preds = %47
  call void (ptr, i32, ptr, ...) @BUG_fl(ptr noundef nonnull @.str.69, i32 noundef 167, ptr noundef nonnull @.str.70) #17
  unreachable

51:                                               ; preds = %47
  store i64 %37, ptr %36, align 8, !tbaa !32
  %52 = getelementptr inbounds nuw i8, ptr %6, i64 16
  %53 = load ptr, ptr %52, align 8, !tbaa !17
  %.not9.i = icmp eq ptr %53, @strbuf_slopbuf
  br i1 %.not9.i, label %strbuf_setlen.exit, label %54

54:                                               ; preds = %51
  %55 = getelementptr inbounds nuw i8, ptr %53, i64 %37
  store i8 0, ptr %55, align 1, !tbaa !9
  br label %strbuf_setlen.exit

strbuf_setlen.exit:                               ; preds = %51, %54
  %56 = call ptr @setup_git_directory() #18
  %57 = load ptr, ptr @the_repository, align 8, !tbaa !36
  %58 = getelementptr inbounds nuw i8, ptr %57, i64 240
  %59 = load ptr, ptr %58, align 8, !tbaa !77
  %.not14 = icmp eq ptr %59, null
  br i1 %.not14, label %60, label %62

60:                                               ; preds = %strbuf_setlen.exit
  %61 = call fastcc ptr @_(ptr noundef nonnull @.str.126)
  call void (ptr, ...) @die(ptr noundef %61) #17
  unreachable

62:                                               ; preds = %strbuf_setlen.exit
  %.not15 = icmp eq ptr %4, null
  br i1 %.not15, label %67, label %63

63:                                               ; preds = %62
  br i1 %.not13, label %65, label %64

64:                                               ; preds = %63
  call void @strbuf_addbuf(ptr noundef nonnull %4, ptr noundef nonnull %6) #18
  br label %67

65:                                               ; preds = %63
  %66 = call i64 @strlen(ptr noundef nonnull dereferenceable(1) %59) #19
  call void @strbuf_add(ptr noundef nonnull %4, ptr noundef nonnull %59, i64 noundef %66) #18
  br label %67

67:                                               ; preds = %64, %65, %62
  call void @strbuf_release(ptr noundef nonnull %6) #18
  call void @llvm.lifetime.end.p0(i64 24, ptr nonnull %6) #18
  ret void
}